; Function Attrs: nounwind uwtable
define ptr @l_Lean_Meta_Grind_Arith_CommRing_DiseqCnstr_denoteExpr___rarg___lambda__2(ptr noundef %0, ptr noundef %1, ptr noundef %2, ptr noundef %3, ptr noundef %4) #0 {
  %6 = ptrtoint ptr %0 to i64
  %7 = and i64 %6, 1
  %.not = icmp eq i64 %7, 0
  br i1 %.not, label %8, label %lean_inc.exit

8:                                                ; preds = %5
  %.val.i = load i32, ptr %0, align 4, !tbaa !6
  %9 = icmp sgt i32 %.val.i, 0
  br i1 %9, label %10, label %12, !prof !5

10:                                               ; preds = %8
  %11 = add nuw i32 %.val.i, 1
  store i32 %11, ptr %0, align 4, !tbaa !6
  br label %lean_inc.exit

12:                                               ; preds = %8
  %.not.i = icmp eq i32 %.val.i, 0
  br i1 %.not.i, label %lean_inc.exit, label %13

13:                                               ; preds = %12
  tail call void @lean_inc_ref_cold(ptr noundef nonnull %0) #3
  br label %lean_inc.exit

lean_inc.exit:                                    ; preds = %13, %12, %10, %5
  %14 = getelementptr inbounds nuw i8, ptr %0, i64 16
  %15 = load ptr, ptr %14, align 8, !tbaa !11
  %16 = ptrtoint ptr %15 to i64
  %17 = and i64 %16, 1
  %.not.i11 = icmp eq i64 %17, 0
  br i1 %.not.i11, label %18, label %lean_inc.exit.i

18:                                               ; preds = %lean_inc.exit
  %.val.i.i = load i32, ptr %15, align 4, !tbaa !6
  %19 = icmp sgt i32 %.val.i.i, 0
  br i1 %19, label %20, label %22, !prof !5

20:                                               ; preds = %18
  %21 = add nuw i32 %.val.i.i, 1
  store i32 %21, ptr %15, align 4, !tbaa !6
  br label %lean_inc.exit.i

22:                                               ; preds = %18
  %.not.i.i = icmp eq i32 %.val.i.i, 0
  br i1 %.not.i.i, label %lean_inc.exit.i, label %23

23:                                               ; preds = %22
  tail call void @lean_inc_ref_cold(ptr noundef nonnull %15) #3
  br label %lean_inc.exit.i

lean_inc.exit.i:                                  ; preds = %23, %22, %20, %lean_inc.exit
  tail call void @lean_inc_heartbeat() #3
  %24 = tail call noalias ptr @mi_malloc_small(i64 noundef 48) #3
  %25 = icmp eq ptr %24, null
  br i1 %25, label %26, label %l___private_Lean_Meta_Tactic_Grind_Arith_CommRing_DenoteExpr_0__Lean_Meta_Grind_Arith_CommRing_mkEq___rarg.exit

26:                                               ; preds = %lean_inc.exit.i
  tail call void @lean_internal_panic_out_of_memory() #4
  unreachable

l___private_Lean_Meta_Tactic_Grind_Arith_CommRing_DenoteExpr_0__Lean_Meta_Grind_Arith_CommRing_mkEq___rarg.exit: ; preds = %lean_inc.exit.i
  %27 = getelementptr inbounds nuw i8, ptr %24, i64 4
  store i32 1, ptr %24, align 4, !tbaa !6
  store i32 -184549328, ptr %27, align 4
  %28 = getelementptr inbounds nuw i8, ptr %24, i64 8
  store ptr @l___private_Lean_Meta_Tactic_Grind_Arith_CommRing_DenoteExpr_0__Lean_Meta_Grind_Arith_CommRing_mkEq___rarg___lambda__1, ptr %28, align 8, !tbaa !11
  %29 = getelementptr inbounds nuw i8, ptr %24, i64 16
  store i16 4, ptr %29, align 8, !tbaa !13
  %30 = getelementptr inbounds nuw i8, ptr %24, i64 18
  store i16 3, ptr %30, align 2, !tbaa !13
  %31 = getelementptr inbounds nuw i8, ptr %24, i64 24
  store ptr %0, ptr %31, align 8, !tbaa !11
  %32 = getelementptr inbounds nuw i8, ptr %24, i64 32
  store ptr %2, ptr %32, align 8, !tbaa !11
  %33 = getelementptr inbounds nuw i8, ptr %24, i64 40
  store ptr %4, ptr %33, align 8, !tbaa !11
  %34 = tail call ptr @lean_apply_4(ptr noundef %15, ptr noundef nonnull inttoptr (i64 1 to ptr), ptr noundef nonnull inttoptr (i64 1 to ptr), ptr noundef %1, ptr noundef nonnull %24) #3
  tail call void @lean_inc_heartbeat() #3
  %35 = tail call noalias ptr @mi_malloc_small(i64 noundef 32) #3
  %36 = icmp eq ptr %35, null
  br i1 %36, label %37, label %lean_alloc_closure.exit

37:                                               ; preds = %l___private_Lean_Meta_Tactic_Grind_Arith_CommRing_DenoteExpr_0__Lean_Meta_Grind_Arith_CommRing_mkEq___rarg.exit
  tail call void @lean_internal_panic_out_of_memory() #4
  unreachable

lean_alloc_closure.exit:                          ; preds = %l___private_Lean_Meta_Tactic_Grind_Arith_CommRing_DenoteExpr_0__Lean_Meta_Grind_Arith_CommRing_mkEq___rarg.exit
  %38 = getelementptr inbounds nuw i8, ptr %35, i64 4
  store i32 1, ptr %35, align 4, !tbaa !6
  store i32 -184549344, ptr %38, align 4
  %39 = getelementptr inbounds nuw i8, ptr %35, i64 8
  store ptr @l_Lean_Meta_Grind_Arith_CommRing_DiseqCnstr_denoteExpr___rarg___lambda__1, ptr %39, align 8, !tbaa !11
  %40 = getelementptr inbounds nuw i8, ptr %35, i64 16
  store i16 2, ptr %40, align 8, !tbaa !13
  %41 = getelementptr inbounds nuw i8, ptr %35, i64 18
  store i16 1, ptr %41, align 2, !tbaa !13
  %42 = getelementptr inbounds nuw i8, ptr %35, i64 24
  store ptr %0, ptr %42, align 8, !tbaa !11
  %43 = tail call ptr @lean_apply_4(ptr noundef %3, ptr noundef nonnull inttoptr (i64 1 to ptr), ptr noundef nonnull inttoptr (i64 1 to ptr), ptr noundef %34, ptr noundef nonnull %35) #3
  ret ptr %43
}